ccopy_reg
_reconstructor
p0
(cgoogle.oauth2.credentials
Credentials
p1
c__builtin__
object
p2
Ntp3
Rp4
(dp5
S'_token_uri'
p6
Vhttps://oauth2.googleapis.com/token
p7
sS'_client_secret'
p8
VwY4qq6Jxm9rgLt57R58et13i
p9
sS'_id_token'
p10
NsS'token'
p11
Vya29.GlsFB66sHOWRW33BxwncQBjwpn7PdOOO2cCIqA61W7Qbdf6ZOtI6AVx7tdFgV21-Mv_5hZeFE8-CX4QKl6VLr49eFFCGU9NAvifAv9qJDrWllhddCaYjPvBS4Bu_
p12
sS'_refresh_token'
p13
V1/aTiLWlXmZLrq0c0S3I2R6EYDNgQ6U1kuJq_TWZNH5wc
p14
sS'_scopes'
p15
(lp16
S'https://www.googleapis.com/auth/gmail.readonly'
p17
asS'_client_id'
p18
V234429077242-u9o7v6nvqicg7pp3kri3q07e3v9hk8nv.apps.googleusercontent.com
p19
sS'expiry'
p20
cdatetime
datetime
p21
(S"\x07\xe3\x05\t\x17'8\x0c\xf0\x86"
p22
tp23
Rp24
sb.