ccopy_reg
_reconstructor
p0
(cgoogle.oauth2.credentials
Credentials
p1
c__builtin__
object
p2
Ntp3
Rp4
(dp5
V_token_uri
p6
Vhttps://oauth2.googleapis.com/token
p7
sV_scopes
p8
(lp9
Vhttps://www.googleapis.com/auth/gmail.send
p10
asV_id_token
p11
NsVtoken
p12
Vya29.GlsUB6XP4aypB2ZV9gPUYWxqXRU1X1zDC___6vqH2lKl2Og9Ovb5RCGWwU1N5sfeqnMZcFyTJIleOM-rKst6tWa4bdFM2Dnxd93HRc1YHzrbMcxs05m5K1b3A_sK
p13
sV_refresh_token
p14
V1/3sJMLof77PLNXoo36S2vtx1gEfS_IH3dgC2Db0aLtp0
p15
sV_client_secret
p16
VwY4qq6Jxm9rgLt57R58et13i
p17
sV_client_id
p18
V234429077242-u9o7v6nvqicg7pp3kri3q07e3v9hk8nv.apps.googleusercontent.com
p19
sVexpiry
p20
cdatetime
datetime
p21
(S'\x07\xe3\x05\x18\x17\x19\x1f\x03\xd7\x10'
p22
tp23
Rp24
sb.